target datalayout = "e-m:e-p270:32:32-p271:32:32-p272:64:64-i64:64-i128:128-f80:128-n8:16:32:64-S128"
target triple = "x86_64-pc-linux-gnu"

%struct.Map_TimeStruct_t_ = type { float, float, float }
%struct.Map_HashTableStruct_t_ = type { ptr, i32, i32, ptr }
%struct.Map_HashEntryStruct_t_ = type { [2 x i32], i32, ptr, ptr }
%struct.Map_SuperStruct_t_ = type { i32, i32, [4 x i8], i32, [6 x ptr], ptr, [2 x i32], [6 x %struct.Map_TimeStruct_t_], [6 x %struct.Map_TimeStruct_t_], %struct.Map_TimeStruct_t_, float, ptr, ptr }

; Function Attrs: nounwind uwtable
define void @Map_SuperTableSortSupergatesByDelay(ptr noundef %0, i32 noundef %1) #0 {
  %3 = alloca ptr, align 8
  %4 = alloca i32, align 4
  %5 = alloca ptr, align 8
  %6 = alloca ptr, align 8
  %7 = alloca ptr, align 8
  %8 = alloca i32, align 4
  %9 = alloca i32, align 4
  %10 = alloca i32, align 4
  store ptr %0, ptr %3, align 8
  store i32 %1, ptr %4, align 4
  %11 = load i32, ptr %4, align 4
  %12 = sext i32 %11 to i64
  %13 = mul i64 8, %12
  %14 = call noalias ptr @malloc(i64 noundef %13) #5
  store ptr %14, ptr %6, align 8
  store i32 0, ptr %9, align 4
  br label %15

15:                                               ; preds = %100, %2
  %16 = load i32, ptr %9, align 4
  %17 = load ptr, ptr %3, align 8
  %18 = getelementptr inbounds %struct.Map_HashTableStruct_t_, ptr %17, i32 0, i32 1
  %19 = load i32, ptr %18, align 8
  %20 = icmp slt i32 %16, %19
  br i1 %20, label %21, label %103

21:                                               ; preds = %15
  %22 = load ptr, ptr %3, align 8
  %23 = getelementptr inbounds %struct.Map_HashTableStruct_t_, ptr %22, i32 0, i32 0
  %24 = load ptr, ptr %23, align 8
  %25 = load i32, ptr %9, align 4
  %26 = sext i32 %25 to i64
  %27 = getelementptr inbounds ptr, ptr %24, i64 %26
  %28 = load ptr, ptr %27, align 8
  store ptr %28, ptr %5, align 8
  br label %29

29:                                               ; preds = %95, %21
  %30 = load ptr, ptr %5, align 8
  %31 = icmp ne ptr %30, null
  br i1 %31, label %32, label %99

32:                                               ; preds = %29
  store i32 0, ptr %8, align 4
  %33 = load ptr, ptr %5, align 8
  %34 = getelementptr inbounds %struct.Map_HashEntryStruct_t_, ptr %33, i32 0, i32 2
  %35 = load ptr, ptr %34, align 8
  store ptr %35, ptr %7, align 8
  br label %36

36:                                               ; preds = %46, %32
  %37 = load ptr, ptr %7, align 8
  %38 = icmp ne ptr %37, null
  br i1 %38, label %39, label %50

39:                                               ; preds = %36
  %40 = load ptr, ptr %7, align 8
  %41 = load ptr, ptr %6, align 8
  %42 = load i32, ptr %8, align 4
  %43 = add nsw i32 %42, 1
  store i32 %43, ptr %8, align 4
  %44 = sext i32 %42 to i64
  %45 = getelementptr inbounds ptr, ptr %41, i64 %44
  store ptr %40, ptr %45, align 8
  br label %46

46:                                               ; preds = %39
  %47 = load ptr, ptr %7, align 8
  %48 = getelementptr inbounds %struct.Map_SuperStruct_t_, ptr %47, i32 0, i32 12
  %49 = load ptr, ptr %48, align 8
  store ptr %49, ptr %7, align 8
  br label %36, !llvm.loop !17

50:                                               ; preds = %36
  %51 = load ptr, ptr %5, align 8
  %52 = getelementptr inbounds %struct.Map_HashEntryStruct_t_, ptr %51, i32 0, i32 2
  store ptr null, ptr %52, align 8
  %53 = load i32, ptr %8, align 4
  %54 = icmp eq i32 %53, 0
  br i1 %54, label %55, label %56

55:                                               ; preds = %50
  br label %95

56:                                               ; preds = %50
  %57 = load ptr, ptr %6, align 8
  %58 = load i32, ptr %8, align 4
  %59 = sext i32 %58 to i64
  call void @qsort(ptr noundef %57, i64 noundef %59, i64 noundef 8, ptr noundef @Map_SuperTableCompareGatesInList)
  store i32 0, ptr %10, align 4
  br label %60

60:                                               ; preds = %81, %56
  %61 = load i32, ptr %10, align 4
  %62 = load i32, ptr %8, align 4
  %63 = icmp slt i32 %61, %62
  br i1 %63, label %64, label %84

64:                                               ; preds = %60
  %65 = load ptr, ptr %5, align 8
  %66 = getelementptr inbounds %struct.Map_HashEntryStruct_t_, ptr %65, i32 0, i32 2
  %67 = load ptr, ptr %66, align 8
  %68 = load ptr, ptr %6, align 8
  %69 = load i32, ptr %10, align 4
  %70 = sext i32 %69 to i64
  %71 = getelementptr inbounds ptr, ptr %68, i64 %70
  %72 = load ptr, ptr %71, align 8
  %73 = getelementptr inbounds %struct.Map_SuperStruct_t_, ptr %72, i32 0, i32 12
  store ptr %67, ptr %73, align 8
  %74 = load ptr, ptr %6, align 8
  %75 = load i32, ptr %10, align 4
  %76 = sext i32 %75 to i64
  %77 = getelementptr inbounds ptr, ptr %74, i64 %76
  %78 = load ptr, ptr %77, align 8
  %79 = load ptr, ptr %5, align 8
  %80 = getelementptr inbounds %struct.Map_HashEntryStruct_t_, ptr %79, i32 0, i32 2
  store ptr %78, ptr %80, align 8
  br label %81

81:                                               ; preds = %64
  %82 = load i32, ptr %10, align 4
  %83 = add nsw i32 %82, 1
  store i32 %83, ptr %10, align 4
  br label %60, !llvm.loop !18

84:                                               ; preds = %60
  %85 = load i32, ptr %8, align 4
  %86 = load ptr, ptr %5, align 8
  %87 = getelementptr inbounds %struct.Map_HashEntryStruct_t_, ptr %86, i32 0, i32 2
  %88 = load ptr, ptr %87, align 8
  %89 = getelementptr inbounds %struct.Map_SuperStruct_t_, ptr %88, i32 0, i32 1
  %90 = load i32, ptr %89, align 4
  %91 = and i32 %85, 65535
  %92 = shl i32 %91, 12
  %93 = and i32 %90, -268431361
  %94 = or i32 %93, %92
  store i32 %94, ptr %89, align 4
  br label %95

95:                                               ; preds = %84, %55
  %96 = load ptr, ptr %5, align 8
  %97 = getelementptr inbounds %struct.Map_HashEntryStruct_t_, ptr %96, i32 0, i32 3
  %98 = load ptr, ptr %97, align 8
  store ptr %98, ptr %5, align 8
  br label %29, !llvm.loop !19

99:                                               ; preds = %29
  br label %100

100:                                              ; preds = %99
  %101 = load i32, ptr %9, align 4
  %102 = add nsw i32 %101, 1
  store i32 %102, ptr %9, align 4
  br label %15, !llvm.loop !20

103:                                              ; preds = %15
  %104 = load ptr, ptr %6, align 8
  %105 = icmp ne ptr %104, null
  br i1 %105, label %106, label %108

106:                                              ; preds = %103
  %107 = load ptr, ptr %6, align 8
  call void @free(ptr noundef %107) #6
  store ptr null, ptr %6, align 8
  br label %109

108:                                              ; preds = %103
  br label %109

109:                                              ; preds = %108, %106
  ret void
}