; Function Attrs: nounwind uwtable
define void @Map_SuperTableSortSupergatesByDelay(ptr noundef readonly captures(none) %0, i32 noundef %1) local_unnamed_addr #5 {
  %3 = sext i32 %1 to i64
  %4 = shl nsw i64 %3, 3
  %5 = tail call noalias ptr @malloc(i64 noundef %4) #16
  %6 = getelementptr inbounds nuw i8, ptr %0, i64 8
  %7 = load i32, ptr %6, align 8
  %8 = icmp sgt i32 %7, 0
  br i1 %8, label %.lr.ph50, label %._crit_edge51

.lr.ph50:                                         ; preds = %2, %._crit_edge47
  %9 = phi i32 [ %31, %._crit_edge47 ], [ %7, %2 ]
  %indvars.iv56 = phi i64 [ %indvars.iv.next57, %._crit_edge47 ], [ 0, %2 ]
  %10 = load ptr, ptr %0, align 8
  %11 = getelementptr inbounds nuw ptr, ptr %10, i64 %indvars.iv56
  %.03342 = load ptr, ptr %11, align 8
  %.not3543 = icmp eq ptr %.03342, null
  br i1 %.not3543, label %._crit_edge47, label %.lr.ph46

.lr.ph46:                                         ; preds = %.lr.ph50, %._crit_edge.thread
  %.03344 = phi ptr [ %.033, %._crit_edge.thread ], [ %.03342, %.lr.ph50 ]
  %12 = getelementptr inbounds nuw i8, ptr %.03344, i64 16
  %.03237 = load ptr, ptr %12, align 8
  %.not3638 = icmp eq ptr %.03237, null
  br i1 %.not3638, label %._crit_edge.thread, label %.lr.ph

.lr.ph:                                           ; preds = %.lr.ph46, %.lr.ph
  %indvars.iv = phi i64 [ %indvars.iv.next, %.lr.ph ], [ 0, %.lr.ph46 ]
  %.03240 = phi ptr [ %.032, %.lr.ph ], [ %.03237, %.lr.ph46 ]
  %indvars.iv.next = add nuw nsw i64 %indvars.iv, 1
  %13 = getelementptr inbounds nuw ptr, ptr %5, i64 %indvars.iv
  store ptr %.03240, ptr %13, align 8
  %14 = getelementptr inbounds nuw i8, ptr %.03240, i64 248
  %.032 = load ptr, ptr %14, align 8
  %.not36 = icmp eq ptr %.032, null
  br i1 %.not36, label %._crit_edge, label %.lr.ph, !llvm.loop !17

._crit_edge:                                      ; preds = %.lr.ph
  %15 = trunc nuw i64 %indvars.iv.next to i32
  store ptr null, ptr %12, align 8
  %16 = and i64 %indvars.iv.next, 4294967295
  tail call void @qsort(ptr noundef nonnull %5, i64 noundef %16, i64 noundef 8, ptr noundef nonnull @Map_SuperTableCompareGatesInList) #15
  %.pre = load ptr, ptr %12, align 8
  br label %17

17:                                               ; preds = %._crit_edge, %17
  %18 = phi ptr [ %.pre, %._crit_edge ], [ %22, %17 ]
  %indvars.iv53 = phi i64 [ 0, %._crit_edge ], [ %indvars.iv.next54, %17 ]
  %19 = getelementptr inbounds nuw ptr, ptr %5, i64 %indvars.iv53
  %20 = load ptr, ptr %19, align 8
  %21 = getelementptr inbounds nuw i8, ptr %20, i64 248
  store ptr %18, ptr %21, align 8
  %22 = load ptr, ptr %19, align 8
  store ptr %22, ptr %12, align 8
  %indvars.iv.next54 = add nuw nsw i64 %indvars.iv53, 1
  %exitcond.not = icmp eq i64 %indvars.iv.next54, %16
  br i1 %exitcond.not, label %23, label %17, !llvm.loop !18

23:                                               ; preds = %17
  %24 = getelementptr inbounds nuw i8, ptr %22, i64 4
  %25 = load i32, ptr %24, align 4
  %26 = shl i32 %15, 12
  %27 = and i32 %26, 268431360
  %28 = and i32 %25, -268431361
  %29 = or disjoint i32 %28, %27
  store i32 %29, ptr %24, align 4
  br label %._crit_edge.thread

._crit_edge.thread:                               ; preds = %.lr.ph46, %23
  %30 = getelementptr inbounds nuw i8, ptr %.03344, i64 24
  %.033 = load ptr, ptr %30, align 8
  %.not35 = icmp eq ptr %.033, null
  br i1 %.not35, label %._crit_edge47.loopexit, label %.lr.ph46, !llvm.loop !19

._crit_edge47.loopexit:                           ; preds = %._crit_edge.thread
  %.pre59 = load i32, ptr %6, align 8
  br label %._crit_edge47

._crit_edge47:                                    ; preds = %._crit_edge47.loopexit, %.lr.ph50
  %31 = phi i32 [ %.pre59, %._crit_edge47.loopexit ], [ %9, %.lr.ph50 ]
  %indvars.iv.next57 = add nuw nsw i64 %indvars.iv56, 1
  %32 = sext i32 %31 to i64
  %33 = icmp slt i64 %indvars.iv.next57, %32
  br i1 %33, label %.lr.ph50, label %._crit_edge51, !llvm.loop !20

._crit_edge51:                                    ; preds = %._crit_edge47, %2
  %.not = icmp eq ptr %5, null
  br i1 %.not, label %35, label %34

34:                                               ; preds = %._crit_edge51
  tail call void @free(ptr noundef nonnull %5) #15
  br label %35

35:                                               ; preds = %._crit_edge51, %34
  ret void
}